; Function Attrs: mustprogress uwtable
define internal noundef ptr @"_ZZN4pkpy12add_module_cEPNS_2VMEEN4$_778__invokeES1_PNS_8PyObjectES4_"(ptr noundef %0, ptr nocapture noundef readonly %1, ptr noundef %2) #3 align 2 {
  %4 = alloca ptr, align 8
  call void @llvm.lifetime.start.p0(i64 8, ptr nonnull %4)
  %5 = getelementptr inbounds i8, ptr %1, i64 24
  %6 = tail call noundef i64 @_ZN4pkpy18_py_cast__internalIlLb1EEET_PNS_2VMEPNS_8PyObjectE(ptr noundef %0, ptr noundef %2)
  %7 = load ptr, ptr %5, align 8
  %8 = getelementptr inbounds i8, ptr %0, i64 16
  %9 = getelementptr inbounds i8, ptr %1, i64 10
  %.sroa.0.0.copyload.i = load i16, ptr %9, align 2
  %10 = sub i64 0, %6
  %11 = getelementptr inbounds i64, ptr %7, i64 %10
  store ptr %11, ptr %4, align 8
  %12 = call noundef ptr @_ZN4pkpy11ManagedHeap5gcnewINS_5VoidPEJPxEEEPNS_8PyObjectENS_4TypeEDpOT0_(ptr noundef nonnull align 8 dereferenceable(84) %8, i16 %.sroa.0.0.copyload.i, ptr noundef nonnull align 8 dereferenceable(8) %4)
  call void @llvm.lifetime.end.p0(i64 8, ptr nonnull %4)
  ret ptr %12
}